; Function Attrs: nounwind uwtable
define range(i32 -1, 1) i32 @H5T_own_vol_obj(ptr nocapture noundef readonly %0, ptr noundef %1) local_unnamed_addr #0 {
  %3 = getelementptr inbounds i8, ptr %0, i64 40
  %4 = load ptr, ptr %3, align 8
  %5 = getelementptr inbounds i8, ptr %4, i64 40
  %6 = load ptr, ptr %5, align 8
  %.not = icmp eq ptr %6, null
  br i1 %.not, label %14, label %7

7:                                                ; preds = %2
  %8 = tail call i32 @H5VL_free_object(ptr noundef nonnull %6) #17
  %9 = icmp slt i32 %8, 0
  br i1 %9, label %10, label %._crit_edge

._crit_edge:                                      ; preds = %7
  %.pre = load ptr, ptr %3, align 8
  br label %14

10:                                               ; preds = %7
  %11 = load i64, ptr @H5E_DATATYPE_g, align 8
  %12 = load i64, ptr @H5E_CANTCLOSEOBJ_g, align 8
  %13 = tail call i32 (ptr, ptr, i32, i64, i64, ptr, ...) @H5E_printf_stack(ptr noundef nonnull @.str.2, ptr noundef nonnull @__func__.H5T_own_vol_obj, i32 noundef 6704, i64 noundef %11, i64 noundef %12, ptr noundef nonnull @.str.220) #17
  br label %18

14:                                               ; preds = %._crit_edge, %2
  %15 = phi ptr [ %.pre, %._crit_edge ], [ %4, %2 ]
  %16 = getelementptr inbounds i8, ptr %15, i64 40
  store ptr %1, ptr %16, align 8
  %17 = tail call i64 @H5VL_object_inc_rc(ptr noundef %1) #17
  br label %18

18:                                               ; preds = %14, %10
  %.0 = phi i32 [ -1, %10 ], [ 0, %14 ]
  ret i32 %.0
}